target datalayout = "e-m:e-p270:32:32-p271:32:32-p272:64:64-i64:64-i128:128-f80:128-n8:16:32:64-S128"
target triple = "x86_64-pc-linux-gnu"

%struct._psqlSettings = type { ptr, i32, ptr, i8, ptr, ptr, %struct.printQueryOpt, ptr, ptr, ptr, i8, i8, i32, i32, ptr, ptr, i8, [4 x ptr], i8, i32, ptr, i8, i32, ptr, ptr, i64, i64, i8, ptr, ptr, ptr, i8, i8, i8, i8, i8, i8, i8, i32, i32, i32, i32, i32, i32, i32, i32, ptr, ptr, ptr, i32, i8, i32 }
%struct.printQueryOpt = type { %struct.printTableOpt, ptr, ptr, ptr, i8, ptr, i32 }
%struct.printTableOpt = type { i32, i16, i32, i32, i16, i16, i32, i8, i8, i8, i8, i64, ptr, %struct.separator, %struct.separator, [2 x i8], i8, ptr, i32, i32, i32, i32, i32, i32 }
%struct.separator = type { ptr, i8 }

@pset = external global %struct._psqlSettings, align 8
@rl_readline_name = external global ptr, align 8
@rl_attempted_completion_function = external global ptr, align 8
@rl_filename_quoting_function = external global ptr, align 8
@rl_filename_dequoting_function = external global ptr, align 8
@.str = private unnamed_addr constant [13 x i8] c"\09\0A@><=;|&() \00", align 1
@rl_basic_word_break_characters = external global ptr, align 8
@.str.1 = private unnamed_addr constant [2 x i8] c"'\00", align 1
@rl_completer_quote_characters = external global ptr, align 8
@rl_filename_quote_characters = external global ptr, align 8
@completion_max_records = internal global i32 0, align 4

; Function Attrs: nounwind uwtable
define dso_local void @initialize_readline() #0 {
  %1 = alloca ptr, align 8
  %2 = alloca i32, align 4
  %3 = load ptr, ptr getelementptr inbounds nuw (%struct._psqlSettings, ptr @pset, i32 0, i32 23), align 8
  store ptr %3, ptr @rl_readline_name, align 8
  store ptr @psql_completion, ptr @rl_attempted_completion_function, align 8
  store ptr @quote_file_name, ptr @rl_filename_quoting_function, align 8
  store ptr @dequote_file_name, ptr @rl_filename_dequoting_function, align 8
  store ptr @.str, ptr @rl_basic_word_break_characters, align 8
  store ptr @.str.1, ptr @rl_completer_quote_characters, align 8
  call void @llvm.lifetime.start.p0(i64 8, ptr %1) #8
  %4 = call ptr @pg_malloc(i64 noundef 256)
  store ptr %4, ptr %1, align 8
  call void @llvm.lifetime.start.p0(i64 4, ptr %2) #8
  store i32 0, ptr %2, align 4
  br label %5

5:                                                ; preds = %17, %0
  %6 = load i32, ptr %2, align 4
  %7 = icmp slt i32 %6, 255
  br i1 %7, label %9, label %8

8:                                                ; preds = %5
  call void @llvm.lifetime.end.p0(i64 4, ptr %2) #8
  br label %20

9:                                                ; preds = %5
  %10 = load i32, ptr %2, align 4
  %11 = add i32 %10, 1
  %12 = trunc i32 %11 to i8
  %13 = load ptr, ptr %1, align 8
  %14 = load i32, ptr %2, align 4
  %15 = sext i32 %14 to i64
  %16 = getelementptr inbounds i8, ptr %13, i64 %15
  store i8 %12, ptr %16, align 1
  br label %17

17:                                               ; preds = %9
  %18 = load i32, ptr %2, align 4
  %19 = add i32 %18, 1
  store i32 %19, ptr %2, align 4
  br label %5, !llvm.loop !4

20:                                               ; preds = %8
  %21 = load ptr, ptr %1, align 8
  %22 = getelementptr inbounds i8, ptr %21, i64 255
  store i8 0, ptr %22, align 1
  %23 = load ptr, ptr %1, align 8
  store ptr %23, ptr @rl_filename_quote_characters, align 8
  call void @llvm.lifetime.end.p0(i64 8, ptr %1) #8
  store i32 1000, ptr @completion_max_records, align 4
  ret void
}