; Function Attrs: nounwind uwtable
define dso_local void @initialize_readline() local_unnamed_addr #0 {
  %1 = load ptr, ptr getelementptr inbounds nuw (i8, ptr @pset, i64 336), align 8
  store ptr %1, ptr @rl_readline_name, align 8
  store ptr @psql_completion, ptr @rl_attempted_completion_function, align 8
  store ptr @quote_file_name, ptr @rl_filename_quoting_function, align 8
  store ptr @dequote_file_name, ptr @rl_filename_dequoting_function, align 8
  store ptr @.str, ptr @rl_basic_word_break_characters, align 8
  store ptr @.str.1, ptr @rl_completer_quote_characters, align 8
  %2 = tail call ptr @pg_malloc(i64 noundef 256) #11
  br label %5

3:                                                ; preds = %5
  %4 = getelementptr inbounds nuw i8, ptr %2, i64 255
  store i8 0, ptr %4, align 1
  store ptr %2, ptr @rl_filename_quote_characters, align 8
  store i1 true, ptr @completion_max_records, align 4
  ret void

5:                                                ; preds = %0, %5
  %indvars.iv = phi i64 [ 0, %0 ], [ %indvars.iv.next, %5 ]
  %indvars.iv.next = add nuw nsw i64 %indvars.iv, 1
  %6 = getelementptr inbounds nuw i8, ptr %2, i64 %indvars.iv
  %7 = trunc nuw i64 %indvars.iv.next to i8
  store i8 %7, ptr %6, align 1
  %exitcond.not = icmp eq i64 %indvars.iv.next, 255
  br i1 %exitcond.not, label %3, label %5, !llvm.loop !4
}